target datalayout = "e-m:e-p270:32:32-p271:32:32-p272:64:64-i64:64-i128:128-f80:128-n8:16:32:64-S128"
target triple = "x86_64-pc-linux-gnu"

@hf_ipmi_se_16_gen = internal global i32 0, align 4
@ett_ipmi_se_16_byte1 = internal global i32 0, align 4
@ett_ipmi_se_16_byte2 = internal global i32 0, align 4
@ett_ipmi_se_16_byte3 = internal global i32 0, align 4
@rq16.byte1 = internal constant [2 x ptr] [ptr @hf_ipmi_se_16_chan, ptr null], align 16
@rq16.byte2 = internal constant [3 x ptr] [ptr @hf_ipmi_se_16_op, ptr @hf_ipmi_se_16_dst, ptr null], align 16
@rq16.byte3 = internal constant [3 x ptr] [ptr @hf_ipmi_se_16_send_string, ptr @hf_ipmi_se_16_string_sel, ptr null], align 16

; Function Attrs: null_pointer_is_valid sspstrong uwtable
define internal void @rq16(ptr noundef %0, ptr noundef %1, ptr noundef %2) #0 {
  %4 = alloca ptr, align 8
  %5 = alloca ptr, align 8
  %6 = alloca ptr, align 8
  %7 = alloca ptr, align 8
  %8 = alloca i32, align 4
  store ptr %0, ptr %4, align 8
  store ptr %1, ptr %5, align 8
  store ptr %2, ptr %6, align 8
  call void @llvm.lifetime.start.p0(i64 8, ptr %7) #5
  %9 = load ptr, ptr %5, align 8
  %10 = load ptr, ptr %4, align 8
  %11 = call zeroext i8 @tvb_get_uint8(ptr noundef %10, i32 noundef 1)
  %12 = zext i8 %11 to i32
  %13 = and i32 %12, 192
  %14 = ashr i32 %13, 6
  call void @ipmi_set_data(ptr noundef %9, i32 noundef 0, i32 noundef %14)
  %15 = load ptr, ptr %6, align 8
  %16 = icmp ne ptr %15, null
  br i1 %16, label %18, label %17

17:                                               ; preds = %3
  store i32 1, ptr %8, align 4
  br label %44

18:                                               ; preds = %3
  %19 = load ptr, ptr %6, align 8
  %20 = load ptr, ptr %4, align 8
  %21 = load i32, ptr @ett_ipmi_se_16_byte1, align 4
  %22 = call ptr @proto_tree_add_bitmask_text(ptr noundef %19, ptr noundef %20, i32 noundef 0, i32 noundef 1, ptr noundef null, ptr noundef null, i32 noundef %21, ptr noundef @rq16.byte1, i32 noundef -2147483648, i32 noundef 0)
  %23 = load ptr, ptr %6, align 8
  %24 = load ptr, ptr %4, align 8
  %25 = load i32, ptr @ett_ipmi_se_16_byte2, align 4
  %26 = call ptr @proto_tree_add_bitmask_text(ptr noundef %23, ptr noundef %24, i32 noundef 1, i32 noundef 1, ptr noundef null, ptr noundef null, i32 noundef %25, ptr noundef @rq16.byte2, i32 noundef -2147483648, i32 noundef 0)
  %27 = load ptr, ptr %6, align 8
  %28 = load ptr, ptr %4, align 8
  %29 = load i32, ptr @ett_ipmi_se_16_byte3, align 4
  %30 = call ptr @proto_tree_add_bitmask_text(ptr noundef %27, ptr noundef %28, i32 noundef 2, i32 noundef 1, ptr noundef null, ptr noundef null, i32 noundef %29, ptr noundef @rq16.byte3, i32 noundef -2147483648, i32 noundef 0)
  %31 = load ptr, ptr %4, align 8
  %32 = call i32 @tvb_captured_length(ptr noundef %31)
  %33 = icmp ugt i32 %32, 3
  br i1 %33, label %34, label %43

34:                                               ; preds = %18
  %35 = load ptr, ptr %6, align 8
  %36 = load i32, ptr @hf_ipmi_se_16_gen, align 4
  %37 = load ptr, ptr %4, align 8
  %38 = call ptr @proto_tree_add_item(ptr noundef %35, i32 noundef %36, ptr noundef %37, i32 noundef 3, i32 noundef 1, i32 noundef -2147483648)
  %39 = load ptr, ptr %4, align 8
  %40 = call ptr @tvb_new_subset_remaining(ptr noundef %39, i32 noundef 4)
  store ptr %40, ptr %7, align 8
  %41 = load ptr, ptr %7, align 8
  %42 = load ptr, ptr %6, align 8
  call void @parse_platform_event(ptr noundef %41, ptr noundef %42)
  br label %43

43:                                               ; preds = %34, %18
  store i32 0, ptr %8, align 4
  br label %44

44:                                               ; preds = %43, %17
  call void @llvm.lifetime.end.p0(i64 8, ptr %7) #5
  %45 = load i32, ptr %8, align 4
  switch i32 %45, label %47 [
    i32 0, label %46
    i32 1, label %46
  ]

46:                                               ; preds = %44, %44
  ret void

47:                                               ; preds = %44
  unreachable
}