; Function Attrs: null_pointer_is_valid sspstrong uwtable
define internal void @rq16(ptr noundef %0, ptr noundef %1, ptr noundef %2) #0 {
  %4 = tail call zeroext i8 @tvb_get_uint8(ptr noundef %0, i32 noundef 1)
  %5 = lshr i8 %4, 6
  %6 = zext nneg i8 %5 to i32
  tail call void @ipmi_set_data(ptr noundef %1, i32 noundef 0, i32 noundef %6)
  %.not = icmp eq ptr %2, null
  br i1 %.not, label %20, label %7

7:                                                ; preds = %3
  %8 = load i32, ptr @ett_ipmi_se_16_byte1, align 4
  %9 = tail call ptr @proto_tree_add_bitmask_text(ptr noundef nonnull %2, ptr noundef %0, i32 noundef 0, i32 noundef 1, ptr noundef null, ptr noundef null, i32 noundef %8, ptr noundef nonnull @rq16.byte1, i32 noundef -2147483648, i32 noundef 0)
  %10 = load i32, ptr @ett_ipmi_se_16_byte2, align 4
  %11 = tail call ptr @proto_tree_add_bitmask_text(ptr noundef nonnull %2, ptr noundef %0, i32 noundef 1, i32 noundef 1, ptr noundef null, ptr noundef null, i32 noundef %10, ptr noundef nonnull @rq16.byte2, i32 noundef -2147483648, i32 noundef 0)
  %12 = load i32, ptr @ett_ipmi_se_16_byte3, align 4
  %13 = tail call ptr @proto_tree_add_bitmask_text(ptr noundef nonnull %2, ptr noundef %0, i32 noundef 2, i32 noundef 1, ptr noundef null, ptr noundef null, i32 noundef %12, ptr noundef nonnull @rq16.byte3, i32 noundef -2147483648, i32 noundef 0)
  %14 = tail call i32 @tvb_captured_length(ptr noundef %0)
  %15 = icmp ugt i32 %14, 3
  br i1 %15, label %16, label %20

16:                                               ; preds = %7
  %17 = load i32, ptr @hf_ipmi_se_16_gen, align 4
  %18 = tail call ptr @proto_tree_add_item(ptr noundef nonnull %2, i32 noundef %17, ptr noundef %0, i32 noundef 3, i32 noundef 1, i32 noundef -2147483648)
  %19 = tail call ptr @tvb_new_subset_remaining(ptr noundef %0, i32 noundef 4)
  tail call fastcc void @parse_platform_event(ptr noundef %19, ptr noundef nonnull %2)
  br label %20

20:                                               ; preds = %7, %16, %3
  ret void
}